target datalayout = "e-m:e-p270:32:32-p271:32:32-p272:64:64-i64:64-i128:128-f80:128-n8:16:32:64-S128"
target triple = "x86_64-pc-linux-gnu"

%struct.sdshdr8 = type { i8, i8, i8, [0 x i8] }
%struct.sdshdr16 = type <{ i16, i16, i8, [0 x i8] }>
%struct.sdshdr32 = type <{ i32, i32, i8, [0 x i8] }>
%struct.sdshdr64 = type <{ i64, i64, i8, [0 x i8] }>
%struct.redisObject = type { i32, i32, ptr }

@.str.87 = private unnamed_addr constant [3 x i8] c"\0D\0A\00", align 1

; Function Attrs: inlinehint nounwind uwtable
define internal i64 @sdslen(ptr noundef %0) #6 {
  %2 = alloca i64, align 8
  %3 = alloca ptr, align 8
  %4 = alloca i8, align 1
  %5 = alloca i32, align 4
  store ptr %0, ptr %3, align 8, !tbaa !18
  call void @llvm.lifetime.start.p0(i64 1, ptr %4) #12
  %6 = load ptr, ptr %3, align 8, !tbaa !18
  %7 = getelementptr inbounds i8, ptr %6, i64 -1
  %8 = load i8, ptr %7, align 1, !tbaa !19
  store i8 %8, ptr %4, align 1, !tbaa !19
  %9 = load i8, ptr %4, align 1, !tbaa !19
  %10 = zext i8 %9 to i32
  %11 = and i32 %10, 7
  switch i32 %11, label %40 [
    i32 0, label %12
    i32 1, label %17
    i32 2, label %23
    i32 3, label %29
    i32 4, label %35
  ]

12:                                               ; preds = %1
  %13 = load i8, ptr %4, align 1, !tbaa !19
  %14 = zext i8 %13 to i32
  %15 = ashr i32 %14, 3
  %16 = sext i32 %15 to i64
  store i64 %16, ptr %2, align 8
  store i32 1, ptr %5, align 4
  br label %41

17:                                               ; preds = %1
  %18 = load ptr, ptr %3, align 8, !tbaa !18
  %19 = getelementptr inbounds i8, ptr %18, i64 -3
  %20 = getelementptr inbounds nuw %struct.sdshdr8, ptr %19, i32 0, i32 0
  %21 = load i8, ptr %20, align 1, !tbaa !19
  %22 = zext i8 %21 to i64
  store i64 %22, ptr %2, align 8
  store i32 1, ptr %5, align 4
  br label %41

23:                                               ; preds = %1
  %24 = load ptr, ptr %3, align 8, !tbaa !18
  %25 = getelementptr inbounds i8, ptr %24, i64 -5
  %26 = getelementptr inbounds nuw %struct.sdshdr16, ptr %25, i32 0, i32 0
  %27 = load i16, ptr %26, align 1, !tbaa !20
  %28 = zext i16 %27 to i64
  store i64 %28, ptr %2, align 8
  store i32 1, ptr %5, align 4
  br label %41

29:                                               ; preds = %1
  %30 = load ptr, ptr %3, align 8, !tbaa !18
  %31 = getelementptr inbounds i8, ptr %30, i64 -9
  %32 = getelementptr inbounds nuw %struct.sdshdr32, ptr %31, i32 0, i32 0
  %33 = load i32, ptr %32, align 1, !tbaa !22
  %34 = zext i32 %33 to i64
  store i64 %34, ptr %2, align 8
  store i32 1, ptr %5, align 4
  br label %41

35:                                               ; preds = %1
  %36 = load ptr, ptr %3, align 8, !tbaa !18
  %37 = getelementptr inbounds i8, ptr %36, i64 -17
  %38 = getelementptr inbounds nuw %struct.sdshdr64, ptr %37, i32 0, i32 0
  %39 = load i64, ptr %38, align 1, !tbaa !23
  store i64 %39, ptr %2, align 8
  store i32 1, ptr %5, align 4
  br label %41

40:                                               ; preds = %1
  store i64 0, ptr %2, align 8
  store i32 1, ptr %5, align 4
  br label %41

41:                                               ; preds = %40, %35, %29, %23, %17, %12
  call void @llvm.lifetime.end.p0(i64 1, ptr %4) #12
  %42 = load i64, ptr %2, align 8
  ret i64 %42
}

; Function Attrs: nounwind uwtable
define dso_local ptr @catAppendOnlyGenericCommand(ptr noundef %0, i32 noundef %1, ptr noundef %2) #0 {
  %4 = alloca ptr, align 8
  %5 = alloca i32, align 4
  %6 = alloca ptr, align 8
  %7 = alloca [32 x i8], align 16
  %8 = alloca i32, align 4
  %9 = alloca i32, align 4
  %10 = alloca ptr, align 8
  store ptr %0, ptr %4, align 8, !tbaa !18
  store i32 %1, ptr %5, align 4, !tbaa !22
  store ptr %2, ptr %6, align 8, !tbaa !130
  call void @llvm.lifetime.start.p0(i64 32, ptr %7) #12
  call void @llvm.lifetime.start.p0(i64 4, ptr %8) #12
  call void @llvm.lifetime.start.p0(i64 4, ptr %9) #12
  call void @llvm.lifetime.start.p0(i64 8, ptr %10) #12
  %11 = getelementptr inbounds [32 x i8], ptr %7, i64 0, i64 0
  store i8 42, ptr %11, align 16, !tbaa !19
  %12 = getelementptr inbounds [32 x i8], ptr %7, i64 0, i64 0
  %13 = getelementptr inbounds i8, ptr %12, i64 1
  %14 = load i32, ptr %5, align 4, !tbaa !22
  %15 = sext i32 %14 to i64
  %16 = call i32 @ll2string(ptr noundef %13, i64 noundef 31, i64 noundef %15)
  %17 = add nsw i32 1, %16
  store i32 %17, ptr %8, align 4, !tbaa !22
  %18 = load i32, ptr %8, align 4, !tbaa !22
  %19 = add nsw i32 %18, 1
  store i32 %19, ptr %8, align 4, !tbaa !22
  %20 = sext i32 %18 to i64
  %21 = getelementptr inbounds [32 x i8], ptr %7, i64 0, i64 %20
  store i8 13, ptr %21, align 1, !tbaa !19
  %22 = load i32, ptr %8, align 4, !tbaa !22
  %23 = add nsw i32 %22, 1
  store i32 %23, ptr %8, align 4, !tbaa !22
  %24 = sext i32 %22 to i64
  %25 = getelementptr inbounds [32 x i8], ptr %7, i64 0, i64 %24
  store i8 10, ptr %25, align 1, !tbaa !19
  %26 = load ptr, ptr %4, align 8, !tbaa !18
  %27 = getelementptr inbounds [32 x i8], ptr %7, i64 0, i64 0
  %28 = load i32, ptr %8, align 4, !tbaa !22
  %29 = sext i32 %28 to i64
  %30 = call ptr @sdscatlen(ptr noundef %26, ptr noundef %27, i64 noundef %29)
  store ptr %30, ptr %4, align 8, !tbaa !18
  store i32 0, ptr %9, align 4, !tbaa !22
  br label %31

31:                                               ; preds = %76, %3
  %32 = load i32, ptr %9, align 4, !tbaa !22
  %33 = load i32, ptr %5, align 4, !tbaa !22
  %34 = icmp slt i32 %32, %33
  br i1 %34, label %35, label %79

35:                                               ; preds = %31
  %36 = load ptr, ptr %6, align 8, !tbaa !130
  %37 = load i32, ptr %9, align 4, !tbaa !22
  %38 = sext i32 %37 to i64
  %39 = getelementptr inbounds ptr, ptr %36, i64 %38
  %40 = load ptr, ptr %39, align 8, !tbaa !132
  %41 = call ptr @getDecodedObject(ptr noundef %40)
  store ptr %41, ptr %10, align 8, !tbaa !132
  %42 = getelementptr inbounds [32 x i8], ptr %7, i64 0, i64 0
  store i8 36, ptr %42, align 16, !tbaa !19
  %43 = getelementptr inbounds [32 x i8], ptr %7, i64 0, i64 0
  %44 = getelementptr inbounds i8, ptr %43, i64 1
  %45 = load ptr, ptr %10, align 8, !tbaa !132
  %46 = getelementptr inbounds nuw %struct.redisObject, ptr %45, i32 0, i32 2
  %47 = load ptr, ptr %46, align 8, !tbaa !134
  %48 = call i64 @sdslen(ptr noundef %47)
  %49 = call i32 @ll2string(ptr noundef %44, i64 noundef 31, i64 noundef %48)
  %50 = add nsw i32 1, %49
  store i32 %50, ptr %8, align 4, !tbaa !22
  %51 = load i32, ptr %8, align 4, !tbaa !22
  %52 = add nsw i32 %51, 1
  store i32 %52, ptr %8, align 4, !tbaa !22
  %53 = sext i32 %51 to i64
  %54 = getelementptr inbounds [32 x i8], ptr %7, i64 0, i64 %53
  store i8 13, ptr %54, align 1, !tbaa !19
  %55 = load i32, ptr %8, align 4, !tbaa !22
  %56 = add nsw i32 %55, 1
  store i32 %56, ptr %8, align 4, !tbaa !22
  %57 = sext i32 %55 to i64
  %58 = getelementptr inbounds [32 x i8], ptr %7, i64 0, i64 %57
  store i8 10, ptr %58, align 1, !tbaa !19
  %59 = load ptr, ptr %4, align 8, !tbaa !18
  %60 = getelementptr inbounds [32 x i8], ptr %7, i64 0, i64 0
  %61 = load i32, ptr %8, align 4, !tbaa !22
  %62 = sext i32 %61 to i64
  %63 = call ptr @sdscatlen(ptr noundef %59, ptr noundef %60, i64 noundef %62)
  store ptr %63, ptr %4, align 8, !tbaa !18
  %64 = load ptr, ptr %4, align 8, !tbaa !18
  %65 = load ptr, ptr %10, align 8, !tbaa !132
  %66 = getelementptr inbounds nuw %struct.redisObject, ptr %65, i32 0, i32 2
  %67 = load ptr, ptr %66, align 8, !tbaa !134
  %68 = load ptr, ptr %10, align 8, !tbaa !132
  %69 = getelementptr inbounds nuw %struct.redisObject, ptr %68, i32 0, i32 2
  %70 = load ptr, ptr %69, align 8, !tbaa !134
  %71 = call i64 @sdslen(ptr noundef %70)
  %72 = call ptr @sdscatlen(ptr noundef %64, ptr noundef %67, i64 noundef %71)
  store ptr %72, ptr %4, align 8, !tbaa !18
  %73 = load ptr, ptr %4, align 8, !tbaa !18
  %74 = call ptr @sdscatlen(ptr noundef %73, ptr noundef @.str.87, i64 noundef 2)
  store ptr %74, ptr %4, align 8, !tbaa !18
  %75 = load ptr, ptr %10, align 8, !tbaa !132
  call void @decrRefCount(ptr noundef %75)
  br label %76

76:                                               ; preds = %35
  %77 = load i32, ptr %9, align 4, !tbaa !22
  %78 = add nsw i32 %77, 1
  store i32 %78, ptr %9, align 4, !tbaa !22
  br label %31, !llvm.loop !136

79:                                               ; preds = %31
  %80 = load ptr, ptr %4, align 8, !tbaa !18
  call void @llvm.lifetime.end.p0(i64 8, ptr %10) #12
  call void @llvm.lifetime.end.p0(i64 4, ptr %9) #12
  call void @llvm.lifetime.end.p0(i64 4, ptr %8) #12
  call void @llvm.lifetime.end.p0(i64 32, ptr %7) #12
  ret ptr %80
}