; Function Attrs: nounwind uwtable
define dso_local ptr @catAppendOnlyGenericCommand(ptr noundef %0, i32 noundef %1, ptr noundef readonly captures(none) %2) local_unnamed_addr #0 {
  %4 = alloca [32 x i8], align 16
  call void @llvm.lifetime.start.p0(i64 32, ptr nonnull %4) #20
  store i8 42, ptr %4, align 16, !tbaa !18
  %5 = getelementptr inbounds nuw i8, ptr %4, i64 1
  %6 = sext i32 %1 to i64
  %7 = call i32 @ll2string(ptr noundef nonnull %5, i64 noundef 31, i64 noundef %6) #20
  %8 = add nsw i32 %7, 1
  %9 = add nsw i32 %7, 2
  %10 = sext i32 %8 to i64
  %11 = getelementptr inbounds [32 x i8], ptr %4, i64 0, i64 %10
  store i8 13, ptr %11, align 1, !tbaa !18
  %12 = add nsw i32 %7, 3
  %13 = sext i32 %9 to i64
  %14 = getelementptr inbounds [32 x i8], ptr %4, i64 0, i64 %13
  store i8 10, ptr %14, align 1, !tbaa !18
  %15 = sext i32 %12 to i64
  %16 = call ptr @sdscatlen(ptr noundef %0, ptr noundef nonnull %4, i64 noundef %15) #20
  %17 = icmp sgt i32 %1, 0
  br i1 %17, label %.lr.ph.preheader, label %._crit_edge

.lr.ph.preheader:                                 ; preds = %3
  %wide.trip.count = zext nneg i32 %1 to i64
  br label %.lr.ph

.lr.ph:                                           ; preds = %.lr.ph.preheader, %sdslen.exit22
  %indvars.iv = phi i64 [ 0, %.lr.ph.preheader ], [ %indvars.iv.next, %sdslen.exit22 ]
  %.024 = phi ptr [ %16, %.lr.ph.preheader ], [ %79, %sdslen.exit22 ]
  %18 = getelementptr inbounds nuw ptr, ptr %2, i64 %indvars.iv
  %19 = load ptr, ptr %18, align 8, !tbaa !116
  %20 = call ptr @getDecodedObject(ptr noundef %19) #20
  store i8 36, ptr %4, align 16, !tbaa !18
  %21 = getelementptr inbounds nuw i8, ptr %20, i64 8
  %22 = load ptr, ptr %21, align 8, !tbaa !118
  %23 = getelementptr inbounds i8, ptr %22, i64 -1
  %24 = load i8, ptr %23, align 1, !tbaa !18
  %25 = zext i8 %24 to i32
  %26 = and i32 %25, 7
  switch i32 %26, label %sdslen.exit [
    i32 0, label %27
    i32 1, label %30
    i32 2, label %34
    i32 3, label %38
    i32 4, label %42
  ]

27:                                               ; preds = %.lr.ph
  %28 = lshr i32 %25, 3
  %29 = zext nneg i32 %28 to i64
  br label %sdslen.exit

30:                                               ; preds = %.lr.ph
  %31 = getelementptr inbounds i8, ptr %22, i64 -3
  %32 = load i8, ptr %31, align 1, !tbaa !18
  %33 = zext i8 %32 to i64
  br label %sdslen.exit

34:                                               ; preds = %.lr.ph
  %35 = getelementptr inbounds i8, ptr %22, i64 -5
  %36 = load i16, ptr %35, align 1, !tbaa !19
  %37 = zext i16 %36 to i64
  br label %sdslen.exit

38:                                               ; preds = %.lr.ph
  %39 = getelementptr inbounds i8, ptr %22, i64 -9
  %40 = load i32, ptr %39, align 1, !tbaa !21
  %41 = zext i32 %40 to i64
  br label %sdslen.exit

42:                                               ; preds = %.lr.ph
  %43 = getelementptr inbounds i8, ptr %22, i64 -17
  %44 = load i64, ptr %43, align 1, !tbaa !22
  br label %sdslen.exit

sdslen.exit:                                      ; preds = %.lr.ph, %27, %30, %34, %38, %42
  %.0.i = phi i64 [ %44, %42 ], [ %41, %38 ], [ %37, %34 ], [ %33, %30 ], [ %29, %27 ], [ 0, %.lr.ph ]
  %45 = call i32 @ll2string(ptr noundef nonnull %5, i64 noundef 31, i64 noundef %.0.i) #20
  %46 = add nsw i32 %45, 1
  %47 = add nsw i32 %45, 2
  %48 = sext i32 %46 to i64
  %49 = getelementptr inbounds [32 x i8], ptr %4, i64 0, i64 %48
  store i8 13, ptr %49, align 1, !tbaa !18
  %50 = add nsw i32 %45, 3
  %51 = sext i32 %47 to i64
  %52 = getelementptr inbounds [32 x i8], ptr %4, i64 0, i64 %51
  store i8 10, ptr %52, align 1, !tbaa !18
  %53 = sext i32 %50 to i64
  %54 = call ptr @sdscatlen(ptr noundef %.024, ptr noundef nonnull %4, i64 noundef %53) #20
  %55 = load ptr, ptr %21, align 8, !tbaa !118
  %56 = getelementptr inbounds i8, ptr %55, i64 -1
  %57 = load i8, ptr %56, align 1, !tbaa !18
  %58 = zext i8 %57 to i32
  %59 = and i32 %58, 7
  switch i32 %59, label %sdslen.exit22 [
    i32 0, label %60
    i32 1, label %63
    i32 2, label %67
    i32 3, label %71
    i32 4, label %75
  ]

60:                                               ; preds = %sdslen.exit
  %61 = lshr i32 %58, 3
  %62 = zext nneg i32 %61 to i64
  br label %sdslen.exit22

63:                                               ; preds = %sdslen.exit
  %64 = getelementptr inbounds i8, ptr %55, i64 -3
  %65 = load i8, ptr %64, align 1, !tbaa !18
  %66 = zext i8 %65 to i64
  br label %sdslen.exit22

67:                                               ; preds = %sdslen.exit
  %68 = getelementptr inbounds i8, ptr %55, i64 -5
  %69 = load i16, ptr %68, align 1, !tbaa !19
  %70 = zext i16 %69 to i64
  br label %sdslen.exit22

71:                                               ; preds = %sdslen.exit
  %72 = getelementptr inbounds i8, ptr %55, i64 -9
  %73 = load i32, ptr %72, align 1, !tbaa !21
  %74 = zext i32 %73 to i64
  br label %sdslen.exit22

75:                                               ; preds = %sdslen.exit
  %76 = getelementptr inbounds i8, ptr %55, i64 -17
  %77 = load i64, ptr %76, align 1, !tbaa !22
  br label %sdslen.exit22

sdslen.exit22:                                    ; preds = %sdslen.exit, %60, %63, %67, %71, %75
  %.0.i21 = phi i64 [ %77, %75 ], [ %74, %71 ], [ %70, %67 ], [ %66, %63 ], [ %62, %60 ], [ 0, %sdslen.exit ]
  %78 = call ptr @sdscatlen(ptr noundef %54, ptr noundef nonnull %55, i64 noundef %.0.i21) #20
  %79 = call ptr @sdscatlen(ptr noundef %78, ptr noundef nonnull @.str.87, i64 noundef 2) #20
  call void @decrRefCount(ptr noundef nonnull %20) #20
  %indvars.iv.next = add nuw nsw i64 %indvars.iv, 1
  %exitcond.not = icmp eq i64 %indvars.iv.next, %wide.trip.count
  br i1 %exitcond.not, label %._crit_edge, label %.lr.ph, !llvm.loop !120

._crit_edge:                                      ; preds = %sdslen.exit22, %3
  %.0.lcssa = phi ptr [ %16, %3 ], [ %79, %sdslen.exit22 ]
  call void @llvm.lifetime.end.p0(i64 32, ptr nonnull %4) #20
  ret ptr %.0.lcssa
}